target datalayout = "e-m:e-p270:32:32-p271:32:32-p272:64:64-i64:64-i128:128-f80:128-n8:16:32:64-S128"
target triple = "x86_64-pc-linux-gnu"

%struct.AVFilterContext = type { ptr, ptr, ptr, ptr, ptr, i32, ptr, ptr, i32, ptr, ptr, i32, i32, ptr, ptr, ptr, ptr, i32, ptr, i32, i32 }
%struct.AudioNEqualizerContext = type { ptr, ptr, ptr, i32, i32, i32, double, i32, i32, i32, ptr, ptr }
%struct.AVFilterLink = type { ptr, ptr, ptr, ptr, i32, i32, i32, i32, %struct.AVRational, i32, i32, i32, %struct.AVChannelLayout, %struct.AVRational, ptr, i32, %struct.AVFilterFormatsConfig, %struct.AVFilterFormatsConfig }
%struct.AVChannelLayout = type { i32, i32, %union.anon.1, ptr }
%union.anon.1 = type { i64 }
%struct.AVRational = type { i32, i32 }
%struct.AVFilterFormatsConfig = type { ptr, ptr, ptr, ptr, ptr }

; Function Attrs: nounwind uwtable
define internal i32 @config_video(ptr noundef %0) #1 {
  %2 = alloca i32, align 4
  %3 = alloca ptr, align 8
  %4 = alloca ptr, align 8
  %5 = alloca ptr, align 8
  %6 = alloca ptr, align 8
  %7 = alloca ptr, align 8
  %8 = alloca i32, align 4
  %9 = alloca %struct.AVRational, align 4
  store ptr %0, ptr %3, align 8, !tbaa !46
  call void @llvm.lifetime.start.p0(i64 8, ptr %4) #13
  %10 = load ptr, ptr %3, align 8, !tbaa !46
  %11 = getelementptr inbounds nuw %struct.AVFilterLink, ptr %10, i32 0, i32 0
  %12 = load ptr, ptr %11, align 8, !tbaa !106
  store ptr %12, ptr %4, align 8, !tbaa !4
  call void @llvm.lifetime.start.p0(i64 8, ptr %5) #13
  %13 = load ptr, ptr %4, align 8, !tbaa !4
  %14 = getelementptr inbounds nuw %struct.AVFilterContext, ptr %13, i32 0, i32 9
  %15 = load ptr, ptr %14, align 8, !tbaa !9
  store ptr %15, ptr %5, align 8, !tbaa !22
  call void @llvm.lifetime.start.p0(i64 8, ptr %6) #13
  %16 = load ptr, ptr %4, align 8, !tbaa !4
  %17 = getelementptr inbounds nuw %struct.AVFilterContext, ptr %16, i32 0, i32 4
  %18 = load ptr, ptr %17, align 8, !tbaa !45
  %19 = getelementptr inbounds ptr, ptr %18, i64 0
  %20 = load ptr, ptr %19, align 8, !tbaa !46
  store ptr %20, ptr %6, align 8, !tbaa !46
  call void @llvm.lifetime.start.p0(i64 8, ptr %7) #13
  %21 = load ptr, ptr %5, align 8, !tbaa !22
  %22 = getelementptr inbounds nuw %struct.AudioNEqualizerContext, ptr %21, i32 0, i32 4
  %23 = load i32, ptr %22, align 4, !tbaa !107
  %24 = load ptr, ptr %3, align 8, !tbaa !46
  %25 = getelementptr inbounds nuw %struct.AVFilterLink, ptr %24, i32 0, i32 6
  store i32 %23, ptr %25, align 8, !tbaa !108
  %26 = load ptr, ptr %5, align 8, !tbaa !22
  %27 = getelementptr inbounds nuw %struct.AudioNEqualizerContext, ptr %26, i32 0, i32 5
  %28 = load i32, ptr %27, align 8, !tbaa !109
  %29 = load ptr, ptr %3, align 8, !tbaa !46
  %30 = getelementptr inbounds nuw %struct.AVFilterLink, ptr %29, i32 0, i32 7
  store i32 %28, ptr %30, align 4, !tbaa !110
  %31 = load ptr, ptr %5, align 8, !tbaa !22
  %32 = getelementptr inbounds nuw %struct.AudioNEqualizerContext, ptr %31, i32 0, i32 11
  call void @av_frame_free(ptr noundef %32)
  %33 = load ptr, ptr %3, align 8, !tbaa !46
  %34 = load ptr, ptr %3, align 8, !tbaa !46
  %35 = getelementptr inbounds nuw %struct.AVFilterLink, ptr %34, i32 0, i32 6
  %36 = load i32, ptr %35, align 8, !tbaa !108
  %37 = load ptr, ptr %3, align 8, !tbaa !46
  %38 = getelementptr inbounds nuw %struct.AVFilterLink, ptr %37, i32 0, i32 7
  %39 = load i32, ptr %38, align 4, !tbaa !110
  %40 = call ptr @ff_get_video_buffer(ptr noundef %33, i32 noundef %36, i32 noundef %39)
  store ptr %40, ptr %7, align 8, !tbaa !63
  %41 = load ptr, ptr %5, align 8, !tbaa !22
  %42 = getelementptr inbounds nuw %struct.AudioNEqualizerContext, ptr %41, i32 0, i32 11
  store ptr %40, ptr %42, align 8, !tbaa !62
  %43 = load ptr, ptr %7, align 8, !tbaa !63
  %44 = icmp ne ptr %43, null
  br i1 %44, label %46, label %45

45:                                               ; preds = %1
  store i32 -12, ptr %2, align 4
  store i32 1, ptr %8, align 4
  br label %54

46:                                               ; preds = %1
  %47 = load ptr, ptr %3, align 8, !tbaa !46
  %48 = getelementptr inbounds nuw %struct.AVFilterLink, ptr %47, i32 0, i32 8
  %49 = getelementptr inbounds nuw %struct.AVRational, ptr %9, i32 0, i32 0
  store i32 1, ptr %49, align 4, !tbaa !75
  %50 = getelementptr inbounds nuw %struct.AVRational, ptr %9, i32 0, i32 1
  store i32 1, ptr %50, align 4, !tbaa !76
  call void @llvm.memcpy.p0.p0.i64(ptr align 8 %48, ptr align 4 %9, i64 8, i1 false), !tbaa.struct !111
  %51 = load ptr, ptr %4, align 8, !tbaa !4
  %52 = load ptr, ptr %6, align 8, !tbaa !46
  %53 = load ptr, ptr %7, align 8, !tbaa !63
  call void @draw_curves(ptr noundef %51, ptr noundef %52, ptr noundef %53)
  store i32 0, ptr %2, align 4
  store i32 1, ptr %8, align 4
  br label %54

54:                                               ; preds = %46, %45
  call void @llvm.lifetime.end.p0(i64 8, ptr %7) #13
  call void @llvm.lifetime.end.p0(i64 8, ptr %6) #13
  call void @llvm.lifetime.end.p0(i64 8, ptr %5) #13
  call void @llvm.lifetime.end.p0(i64 8, ptr %4) #13
  %55 = load i32, ptr %2, align 4
  ret i32 %55
}