; Function Attrs: nounwind uwtable
define internal range(i32 -12, 1) i32 @config_video(ptr noundef initializes((40, 48)) %0) #1 {
  %2 = load ptr, ptr %0, align 8, !tbaa !84
  %3 = getelementptr inbounds nuw i8, ptr %2, i64 72
  %4 = load ptr, ptr %3, align 8, !tbaa !4
  %5 = getelementptr inbounds nuw i8, ptr %2, i64 32
  %6 = load ptr, ptr %5, align 8, !tbaa !30
  %7 = load ptr, ptr %6, align 8, !tbaa !31
  %8 = getelementptr inbounds nuw i8, ptr %4, i64 28
  %9 = load i32, ptr %8, align 4, !tbaa !85
  %10 = getelementptr inbounds nuw i8, ptr %0, i64 40
  store i32 %9, ptr %10, align 8, !tbaa !86
  %11 = getelementptr inbounds nuw i8, ptr %4, i64 32
  %12 = load i32, ptr %11, align 8, !tbaa !87
  %13 = getelementptr inbounds nuw i8, ptr %0, i64 44
  store i32 %12, ptr %13, align 4, !tbaa !88
  %14 = getelementptr inbounds nuw i8, ptr %4, i64 72
  tail call void @av_frame_free(ptr noundef nonnull %14) #15
  %15 = load i32, ptr %10, align 8, !tbaa !86
  %16 = load i32, ptr %13, align 4, !tbaa !88
  %17 = tail call ptr @ff_get_video_buffer(ptr noundef nonnull %0, i32 noundef %15, i32 noundef %16) #15
  store ptr %17, ptr %14, align 8, !tbaa !48
  %.not = icmp eq ptr %17, null
  br i1 %.not, label %20, label %18

18:                                               ; preds = %1
  %19 = getelementptr inbounds nuw i8, ptr %0, i64 48
  store i32 1, ptr %19, align 8, !tbaa !21
  %.sroa.2.0..sroa_idx = getelementptr inbounds nuw i8, ptr %0, i64 52
  store i32 1, ptr %.sroa.2.0..sroa_idx, align 4, !tbaa !21
  tail call fastcc void @draw_curves(ptr noundef nonnull %2, ptr noundef %7, ptr noundef nonnull %17)
  br label %20

20:                                               ; preds = %1, %18
  %.0 = phi i32 [ 0, %18 ], [ -12, %1 ]
  ret i32 %.0
}